; ModuleID = '45/2648.c'
source_filename = "45/2648.c"
target datalayout = "e-m:e-p270:32:32-p271:32:32-p272:64:64-i64:64-f80:128-n8:16:32:64-S128"
target triple = "x86_64-pc-linux-gnu"

@.str = private unnamed_addr constant [6 x i8] c"%s %s\00", align 1
@.str.1 = private unnamed_addr constant [4 x i8] c"%d\0A\00", align 1

; Function Attrs: noinline nounwind uwtable
define dso_local i32 @compare(i8* %0, i8* %1, i32 %2) #0 {
  %4 = alloca i32, align 4
  %5 = alloca i8*, align 8
  %6 = alloca i8*, align 8
  %7 = alloca i32, align 4
  %8 = alloca i32, align 4
  %9 = alloca i32, align 4
  store i8* %0, i8** %5, align 8
  store i8* %1, i8** %6, align 8
  store i32 %2, i32* %7, align 4
  %10 = load i8*, i8** %5, align 8
  %11 = call i64 @strlen(i8* %10) #3
  %12 = trunc i64 %11 to i32
  store i32 %12, i32* %9, align 4
  store i32 0, i32* %8, align 4
  br label %13

13:                                               ; preds = %35, %3
  %14 = load i32, i32* %8, align 4
  %15 = load i32, i32* %9, align 4
  %16 = icmp slt i32 %14, %15
  br i1 %16, label %17, label %38

17:                                               ; preds = %13
  %18 = load i8*, i8** %5, align 8
  %19 = load i32, i32* %8, align 4
  %20 = sext i32 %19 to i64
  %21 = getelementptr inbounds i8, i8* %18, i64 %20
  %22 = load i8, i8* %21, align 1
  %23 = sext i8 %22 to i32
  %24 = load i8*, i8** %6, align 8
  %25 = load i32, i32* %8, align 4
  %26 = load i32, i32* %7, align 4
  %27 = add nsw i32 %25, %26
  %28 = sext i32 %27 to i64
  %29 = getelementptr inbounds i8, i8* %24, i64 %28
  %30 = load i8, i8* %29, align 1
  %31 = sext i8 %30 to i32
  %32 = icmp eq i32 %23, %31
  br i1 %32, label %33, label %34

33:                                               ; preds = %17
  br label %35

34:                                               ; preds = %17
  store i32 0, i32* %4, align 4
  br label %39

35:                                               ; preds = %33
  %36 = load i32, i32* %8, align 4
  %37 = add nsw i32 %36, 1
  store i32 %37, i32* %8, align 4
  br label %13

38:                                               ; preds = %13
  store i32 1, i32* %4, align 4
  br label %39

39:                                               ; preds = %38, %34
  %40 = load i32, i32* %4, align 4
  ret i32 %40
}

; Function Attrs: nounwind readonly
declare dso_local i64 @strlen(i8*) #1

; Function Attrs: noinline nounwind uwtable
define dso_local void @main() #0 {
  %1 = alloca i32, align 4
  %2 = alloca i32, align 4
  %3 = alloca i32, align 4
  %4 = alloca [51 x i8], align 16
  %5 = alloca [51 x i8], align 16
  %6 = getelementptr inbounds [51 x i8], [51 x i8]* %4, i64 0, i64 0
  %7 = getelementptr inbounds [51 x i8], [51 x i8]* %5, i64 0, i64 0
  %8 = call i32 (i8*, ...) @__isoc99_scanf(i8* getelementptr inbounds ([6 x i8], [6 x i8]* @.str, i64 0, i64 0), i8* %6, i8* %7)
  %9 = getelementptr inbounds [51 x i8], [51 x i8]* %4, i64 0, i64 0
  %10 = call i64 @strlen(i8* %9) #3
  %11 = trunc i64 %10 to i32
  store i32 %11, i32* %2, align 4
  %12 = getelementptr inbounds [51 x i8], [51 x i8]* %5, i64 0, i64 0
  %13 = call i64 @strlen(i8* %12) #3
  %14 = trunc i64 %13 to i32
  store i32 %14, i32* %3, align 4
  store i32 0, i32* %1, align 4
  br label %15

15:                                               ; preds = %31, %0
  %16 = load i32, i32* %1, align 4
  %17 = load i32, i32* %3, align 4
  %18 = load i32, i32* %2, align 4
  %19 = sub nsw i32 %17, %18
  %20 = icmp sle i32 %16, %19
  br i1 %20, label %21, label %34

21:                                               ; preds = %15
  %22 = getelementptr inbounds [51 x i8], [51 x i8]* %4, i64 0, i64 0
  %23 = getelementptr inbounds [51 x i8], [51 x i8]* %5, i64 0, i64 0
  %24 = load i32, i32* %1, align 4
  %25 = call i32 @compare(i8* %22, i8* %23, i32 %24)
  %26 = icmp eq i32 %25, 1
  br i1 %26, label %27, label %30

27:                                               ; preds = %21
  %28 = load i32, i32* %1, align 4
  %29 = call i32 (i8*, ...) @printf(i8* getelementptr inbounds ([4 x i8], [4 x i8]* @.str.1, i64 0, i64 0), i32 %28)
  br label %34

30:                                               ; preds = %21
  br label %31

31:                                               ; preds = %30
  %32 = load i32, i32* %1, align 4
  %33 = add nsw i32 %32, 1
  store i32 %33, i32* %1, align 4
  br label %15

34:                                               ; preds = %27, %15
  ret void
}

declare dso_local i32 @__isoc99_scanf(i8*, ...) #2

declare dso_local i32 @printf(i8*, ...) #2


!llvm.module.flags = !{!0}
!llvm.ident = !{!1}

!0 = !{i32 1, !"wchar_size", i32 4}
!1 = !{!"clang version 10.0.0-4ubuntu1 "}
